target datalayout = "e-m:e-p270:32:32-p271:32:32-p272:64:64-i64:64-i128:128-f80:128-n8:16:32:64-S128"
target triple = "x86_64-pc-linux-gnu"

%struct.store_engine = type { %union.pthread_mutex_t, ptr, ptr, ptr, ptr, ptr, ptr, ptr, i64, i32, i32, i32, i32, i32, i32, i32, i32, %union.pthread_mutex_t, %struct.extstore_stats, %struct.store_maint }
%union.pthread_mutex_t = type { %struct.__pthread_mutex_s }
%struct.__pthread_mutex_s = type { i32, i32, i32, i32, i32, i16, i16, %struct.__pthread_internal_list }
%struct.__pthread_internal_list = type { ptr, ptr }
%struct.extstore_stats = type { i64, i64, i64, i64, i64, i64, i64, i64, i64, i64, i64, i64, i64, i64, i64, i64, i64, ptr }
%struct.store_maint = type { %union.pthread_mutex_t }
%struct._store_page = type { %union.pthread_mutex_t, i64, i64, i64, i32, i32, i32, i32, i32, i32, i32, i16, i8, i8, i8, ptr, ptr }
%struct.__store_wbuf = type { ptr, ptr, ptr, i32, i32, i32, i8, i8 }

; Function Attrs: nounwind uwtable
define internal void @_allocate_wbuf(ptr noundef %0, ptr noundef %1) #0 {
  %3 = alloca ptr, align 8
  %4 = alloca ptr, align 8
  %5 = alloca ptr, align 8
  store ptr %0, ptr %3, align 8, !tbaa !10
  store ptr %1, ptr %4, align 8, !tbaa !40
  call void @llvm.lifetime.start.p0(i64 8, ptr %5) #8
  store ptr null, ptr %5, align 8, !tbaa !107
  %6 = load ptr, ptr %3, align 8, !tbaa !10
  %7 = getelementptr inbounds nuw %struct.store_engine, ptr %6, i32 0, i32 0
  %8 = call i32 @pthread_mutex_lock(ptr noundef %7) #8
  %9 = load ptr, ptr %3, align 8, !tbaa !10
  %10 = getelementptr inbounds nuw %struct.store_engine, ptr %9, i32 0, i32 2
  %11 = load ptr, ptr %10, align 8, !tbaa !109
  %12 = icmp ne ptr %11, null
  br i1 %12, label %13, label %24

13:                                               ; preds = %2
  %14 = load ptr, ptr %3, align 8, !tbaa !10
  %15 = getelementptr inbounds nuw %struct.store_engine, ptr %14, i32 0, i32 2
  %16 = load ptr, ptr %15, align 8, !tbaa !109
  store ptr %16, ptr %5, align 8, !tbaa !107
  %17 = load ptr, ptr %5, align 8, !tbaa !107
  %18 = getelementptr inbounds nuw %struct.__store_wbuf, ptr %17, i32 0, i32 0
  %19 = load ptr, ptr %18, align 8, !tbaa !110
  %20 = load ptr, ptr %3, align 8, !tbaa !10
  %21 = getelementptr inbounds nuw %struct.store_engine, ptr %20, i32 0, i32 2
  store ptr %19, ptr %21, align 8, !tbaa !109
  %22 = load ptr, ptr %5, align 8, !tbaa !107
  %23 = getelementptr inbounds nuw %struct.__store_wbuf, ptr %22, i32 0, i32 0
  store ptr null, ptr %23, align 8, !tbaa !110
  br label %24

24:                                               ; preds = %13, %2
  %25 = load ptr, ptr %3, align 8, !tbaa !10
  %26 = getelementptr inbounds nuw %struct.store_engine, ptr %25, i32 0, i32 0
  %27 = call i32 @pthread_mutex_unlock(ptr noundef %26) #8
  %28 = load ptr, ptr %5, align 8, !tbaa !107
  %29 = icmp ne ptr %28, null
  br i1 %29, label %30, label %60

30:                                               ; preds = %24
  %31 = load ptr, ptr %4, align 8, !tbaa !40
  %32 = getelementptr inbounds nuw %struct._store_page, ptr %31, i32 0, i32 6
  %33 = load i32, ptr %32, align 8, !tbaa !69
  %34 = load ptr, ptr %5, align 8, !tbaa !107
  %35 = getelementptr inbounds nuw %struct.__store_wbuf, ptr %34, i32 0, i32 5
  store i32 %33, ptr %35, align 8, !tbaa !147
  %36 = load ptr, ptr %5, align 8, !tbaa !107
  %37 = getelementptr inbounds nuw %struct.__store_wbuf, ptr %36, i32 0, i32 4
  %38 = load i32, ptr %37, align 4, !tbaa !126
  %39 = load ptr, ptr %4, align 8, !tbaa !40
  %40 = getelementptr inbounds nuw %struct._store_page, ptr %39, i32 0, i32 6
  %41 = load i32, ptr %40, align 8, !tbaa !69
  %42 = add i32 %41, %38
  store i32 %42, ptr %40, align 8, !tbaa !69
  %43 = load ptr, ptr %5, align 8, !tbaa !107
  %44 = getelementptr inbounds nuw %struct.__store_wbuf, ptr %43, i32 0, i32 4
  %45 = load i32, ptr %44, align 4, !tbaa !126
  %46 = load ptr, ptr %5, align 8, !tbaa !107
  %47 = getelementptr inbounds nuw %struct.__store_wbuf, ptr %46, i32 0, i32 3
  store i32 %45, ptr %47, align 8, !tbaa !125
  %48 = load ptr, ptr %5, align 8, !tbaa !107
  %49 = getelementptr inbounds nuw %struct.__store_wbuf, ptr %48, i32 0, i32 1
  %50 = load ptr, ptr %49, align 8, !tbaa !123
  %51 = load ptr, ptr %5, align 8, !tbaa !107
  %52 = getelementptr inbounds nuw %struct.__store_wbuf, ptr %51, i32 0, i32 2
  store ptr %50, ptr %52, align 8, !tbaa !124
  %53 = load ptr, ptr %5, align 8, !tbaa !107
  %54 = getelementptr inbounds nuw %struct.__store_wbuf, ptr %53, i32 0, i32 6
  store i8 0, ptr %54, align 4, !tbaa !143
  %55 = load ptr, ptr %5, align 8, !tbaa !107
  %56 = getelementptr inbounds nuw %struct.__store_wbuf, ptr %55, i32 0, i32 7
  store i8 0, ptr %56, align 1, !tbaa !148
  %57 = load ptr, ptr %5, align 8, !tbaa !107
  %58 = load ptr, ptr %4, align 8, !tbaa !40
  %59 = getelementptr inbounds nuw %struct._store_page, ptr %58, i32 0, i32 15
  store ptr %57, ptr %59, align 8, !tbaa !142
  br label %60

60:                                               ; preds = %30, %24
  call void @llvm.lifetime.end.p0(i64 8, ptr %5) #8
  ret void
}