; Function Attrs: nounwind uwtable
define internal fastcc void @_allocate_wbuf(ptr noundef %0, ptr noundef nonnull captures(none) %1) unnamed_addr #0 {
  %3 = tail call i32 @pthread_mutex_lock(ptr noundef %0) #13
  %4 = getelementptr inbounds nuw i8, ptr %0, i64 48
  %5 = load ptr, ptr %4, align 8, !tbaa !95
  %.not = icmp eq ptr %5, null
  br i1 %.not, label %.thread, label %7

.thread:                                          ; preds = %2
  %6 = tail call i32 @pthread_mutex_unlock(ptr noundef nonnull %0) #13
  br label %23

7:                                                ; preds = %2
  %8 = load ptr, ptr %5, align 8, !tbaa !102
  store ptr %8, ptr %4, align 8, !tbaa !95
  store ptr null, ptr %5, align 8, !tbaa !102
  %9 = tail call i32 @pthread_mutex_unlock(ptr noundef nonnull %0) #13
  %10 = getelementptr inbounds nuw i8, ptr %1, i64 72
  %11 = load i32, ptr %10, align 8, !tbaa !63
  %12 = getelementptr inbounds nuw i8, ptr %5, i64 32
  store i32 %11, ptr %12, align 8, !tbaa !124
  %13 = getelementptr inbounds nuw i8, ptr %5, i64 28
  %14 = load i32, ptr %13, align 4, !tbaa !101
  %15 = add i32 %14, %11
  store i32 %15, ptr %10, align 8, !tbaa !63
  %16 = getelementptr inbounds nuw i8, ptr %5, i64 24
  store i32 %14, ptr %16, align 8, !tbaa !100
  %17 = getelementptr inbounds nuw i8, ptr %5, i64 8
  %18 = load ptr, ptr %17, align 8, !tbaa !97
  %19 = getelementptr inbounds nuw i8, ptr %5, i64 16
  store ptr %18, ptr %19, align 8, !tbaa !99
  %20 = getelementptr inbounds nuw i8, ptr %5, i64 36
  store i8 0, ptr %20, align 4, !tbaa !137
  %21 = getelementptr inbounds nuw i8, ptr %5, i64 37
  store i8 0, ptr %21, align 1, !tbaa !140
  %22 = getelementptr inbounds nuw i8, ptr %1, i64 104
  store ptr %5, ptr %22, align 8, !tbaa !121
  br label %23

23:                                               ; preds = %.thread, %7
  ret void
}